target datalayout = "e-m:e-p270:32:32-p271:32:32-p272:64:64-i64:64-i128:128-f80:128-n8:16:32:64-S128"
target triple = "x86_64-pc-linux-gnu"

%struct.VduseVirtq = type { %struct.VduseRing, i16, i16, i16, i16, i8, i32, i32, i8, i32, ptr, ptr, i16, i64, ptr }
%struct.VduseRing = type { i32, i64, i64, i64, ptr, ptr, ptr }
%struct.VduseDev = type { ptr, [256 x %struct.VduseIovaRegion], i32, ptr, i32, i32, i16, i16, i64, ptr, i32, i32, ptr, ptr }
%struct.VduseIovaRegion = type { i64, i64, i64, i64 }
%struct.vring_avail = type { i16, i16, [0 x i16] }

@stderr = external global ptr, align 8
@.str = private unnamed_addr constant [32 x i8] c"Error inject irq for vq %d: %s\0A\00", align 1
@.str.16 = private unnamed_addr constant [40 x i8] c"../qemu/subprojects/libvduse/libvduse.c\00", align 1
@.str.41 = private unnamed_addr constant [10 x i8] c"fbit < 64\00", align 1
@__PRETTY_FUNCTION__.has_feature = private unnamed_addr constant [42 x i8] c"_Bool has_feature(uint64_t, unsigned int)\00", align 1

; Function Attrs: inlinehint nounwind uwtable
define internal zeroext i16 @vring_avail_ring(ptr noundef %0, i32 noundef %1) #5 {
  %3 = alloca ptr, align 8
  %4 = alloca i32, align 4
  store ptr %0, ptr %3, align 8
  store i32 %1, ptr %4, align 4
  %5 = load ptr, ptr %3, align 8
  %6 = getelementptr inbounds nuw %struct.VduseVirtq, ptr %5, i32 0, i32 0
  %7 = getelementptr inbounds nuw %struct.VduseRing, ptr %6, i32 0, i32 5
  %8 = load ptr, ptr %7, align 8
  %9 = getelementptr inbounds nuw %struct.vring_avail, ptr %8, i32 0, i32 2
  %10 = load i32, ptr %4, align 4
  %11 = sext i32 %10 to i64
  %12 = getelementptr inbounds [0 x i16], ptr %9, i64 0, i64 %11
  %13 = load i16, ptr %12, align 2
  %14 = call zeroext i16 @__uint16_identity(i16 noundef zeroext %13)
  ret i16 %14
}

; Function Attrs: inlinehint nounwind uwtable
define internal zeroext i16 @__uint16_identity(i16 noundef zeroext %0) #5 {
  %2 = alloca i16, align 2
  store i16 %0, ptr %2, align 2
  %3 = load i16, ptr %2, align 2
  ret i16 %3
}

; Function Attrs: inlinehint nounwind uwtable
define internal zeroext i16 @vring_avail_idx(ptr noundef %0) #5 {
  %2 = alloca ptr, align 8
  store ptr %0, ptr %2, align 8
  %3 = load ptr, ptr %2, align 8
  %4 = getelementptr inbounds nuw %struct.VduseVirtq, ptr %3, i32 0, i32 0
  %5 = getelementptr inbounds nuw %struct.VduseRing, ptr %4, i32 0, i32 5
  %6 = load ptr, ptr %5, align 8
  %7 = getelementptr inbounds nuw %struct.vring_avail, ptr %6, i32 0, i32 1
  %8 = load i16, ptr %7, align 2
  %9 = call zeroext i16 @__uint16_identity(i16 noundef zeroext %8)
  %10 = load ptr, ptr %2, align 8
  %11 = getelementptr inbounds nuw %struct.VduseVirtq, ptr %10, i32 0, i32 2
  store i16 %9, ptr %11, align 2
  %12 = load ptr, ptr %2, align 8
  %13 = getelementptr inbounds nuw %struct.VduseVirtq, ptr %12, i32 0, i32 2
  %14 = load i16, ptr %13, align 2
  ret i16 %14
}

; Function Attrs: inlinehint nounwind uwtable
define internal zeroext i1 @has_feature(i64 noundef %0, i32 noundef %1) #5 {
  %3 = alloca i64, align 8
  %4 = alloca i32, align 4
  store i64 %0, ptr %3, align 8
  store i32 %1, ptr %4, align 4
  %5 = load i32, ptr %4, align 4
  %6 = icmp ult i32 %5, 64
  br i1 %6, label %7, label %8

7:                                                ; preds = %2
  br label %9

8:                                                ; preds = %2
  call void @__assert_fail(ptr noundef @.str.41, ptr noundef @.str.16, i32 noundef 167, ptr noundef @__PRETTY_FUNCTION__.has_feature) #15
  unreachable

9:                                                ; preds = %7
  %10 = load i64, ptr %3, align 8
  %11 = load i32, ptr %4, align 4
  %12 = zext i32 %11 to i64
  %13 = shl i64 1, %12
  %14 = and i64 %10, %13
  %15 = icmp ne i64 %14, 0
  %16 = xor i1 %15, true
  %17 = xor i1 %16, true
  ret i1 %17
}

; Function Attrs: inlinehint nounwind uwtable
define internal i32 @vring_need_event(i16 noundef zeroext %0, i16 noundef zeroext %1, i16 noundef zeroext %2) #5 {
  %4 = alloca i16, align 2
  %5 = alloca i16, align 2
  %6 = alloca i16, align 2
  store i16 %0, ptr %4, align 2
  store i16 %1, ptr %5, align 2
  store i16 %2, ptr %6, align 2
  %7 = load i16, ptr %5, align 2
  %8 = zext i16 %7 to i32
  %9 = load i16, ptr %4, align 2
  %10 = zext i16 %9 to i32
  %11 = sub i32 %8, %10
  %12 = sub i32 %11, 1
  %13 = trunc i32 %12 to i16
  %14 = zext i16 %13 to i32
  %15 = load i16, ptr %5, align 2
  %16 = zext i16 %15 to i32
  %17 = load i16, ptr %6, align 2
  %18 = zext i16 %17 to i32
  %19 = sub i32 %16, %18
  %20 = trunc i32 %19 to i16
  %21 = zext i16 %20 to i32
  %22 = icmp slt i32 %14, %21
  %23 = zext i1 %22 to i32
  ret i32 %23
}

; Function Attrs: inlinehint nounwind uwtable
define internal zeroext i16 @vring_get_used_event(ptr noundef %0) #5 {
  %2 = alloca ptr, align 8
  store ptr %0, ptr %2, align 8
  %3 = load ptr, ptr %2, align 8
  %4 = load ptr, ptr %2, align 8
  %5 = getelementptr inbounds nuw %struct.VduseVirtq, ptr %4, i32 0, i32 0
  %6 = getelementptr inbounds nuw %struct.VduseRing, ptr %5, i32 0, i32 0
  %7 = load i32, ptr %6, align 8
  %8 = call zeroext i16 @vring_avail_ring(ptr noundef %3, i32 noundef %7)
  ret i16 %8
}

; Function Attrs: inlinehint nounwind uwtable
define internal zeroext i16 @vring_avail_flags(ptr noundef %0) #5 {
  %2 = alloca ptr, align 8
  store ptr %0, ptr %2, align 8
  %3 = load ptr, ptr %2, align 8
  %4 = getelementptr inbounds nuw %struct.VduseVirtq, ptr %3, i32 0, i32 0
  %5 = getelementptr inbounds nuw %struct.VduseRing, ptr %4, i32 0, i32 5
  %6 = load ptr, ptr %5, align 8
  %7 = getelementptr inbounds nuw %struct.vring_avail, ptr %6, i32 0, i32 0
  %8 = load i16, ptr %7, align 2
  %9 = call zeroext i16 @__uint16_identity(i16 noundef zeroext %8)
  ret i16 %9
}

; Function Attrs: nounwind uwtable
define internal zeroext i1 @vduse_queue_empty(ptr noundef %0) #0 {
  %2 = alloca i1, align 1
  %3 = alloca ptr, align 8
  store ptr %0, ptr %3, align 8
  %4 = load ptr, ptr %3, align 8
  %5 = getelementptr inbounds nuw %struct.VduseVirtq, ptr %4, i32 0, i32 0
  %6 = getelementptr inbounds nuw %struct.VduseRing, ptr %5, i32 0, i32 5
  %7 = load ptr, ptr %6, align 8
  %8 = icmp ne ptr %7, null
  %9 = xor i1 %8, true
  %10 = xor i1 %9, true
  %11 = xor i1 %10, true
  %12 = zext i1 %11 to i32
  %13 = sext i32 %12 to i64
  %14 = call i64 @llvm.expect.i64(i64 %13, i64 0)
  %15 = icmp ne i64 %14, 0
  br i1 %15, label %16, label %17

16:                                               ; preds = %1
  store i1 true, ptr %2, align 1
  br label %37

17:                                               ; preds = %1
  %18 = load ptr, ptr %3, align 8
  %19 = getelementptr inbounds nuw %struct.VduseVirtq, ptr %18, i32 0, i32 2
  %20 = load i16, ptr %19, align 2
  %21 = zext i16 %20 to i32
  %22 = load ptr, ptr %3, align 8
  %23 = getelementptr inbounds nuw %struct.VduseVirtq, ptr %22, i32 0, i32 1
  %24 = load i16, ptr %23, align 8
  %25 = zext i16 %24 to i32
  %26 = icmp ne i32 %21, %25
  br i1 %26, label %27, label %28

27:                                               ; preds = %17
  store i1 false, ptr %2, align 1
  br label %37

28:                                               ; preds = %17
  %29 = load ptr, ptr %3, align 8
  %30 = call zeroext i16 @vring_avail_idx(ptr noundef %29)
  %31 = zext i16 %30 to i32
  %32 = load ptr, ptr %3, align 8
  %33 = getelementptr inbounds nuw %struct.VduseVirtq, ptr %32, i32 0, i32 1
  %34 = load i16, ptr %33, align 8
  %35 = zext i16 %34 to i32
  %36 = icmp eq i32 %31, %35
  store i1 %36, ptr %2, align 1
  br label %37

37:                                               ; preds = %28, %27, %16
  %38 = load i1, ptr %2, align 1
  ret i1 %38
}

; Function Attrs: inlinehint nounwind uwtable
define internal zeroext i1 @vduse_dev_has_feature(ptr noundef %0, i32 noundef %1) #5 {
  %3 = alloca ptr, align 8
  %4 = alloca i32, align 4
  store ptr %0, ptr %3, align 8
  store i32 %1, ptr %4, align 4
  %5 = load ptr, ptr %3, align 8
  %6 = getelementptr inbounds nuw %struct.VduseDev, ptr %5, i32 0, i32 8
  %7 = load i64, ptr %6, align 8
  %8 = load i32, ptr %4, align 4
  %9 = call zeroext i1 @has_feature(i64 noundef %7, i32 noundef %8)
  ret i1 %9
}

; Function Attrs: nounwind uwtable
define internal i32 @vduse_inject_irq(ptr noundef %0, i32 noundef %1) #0 {
  %3 = alloca ptr, align 8
  %4 = alloca i32, align 4
  store ptr %0, ptr %3, align 8
  store i32 %1, ptr %4, align 4
  %5 = load ptr, ptr %3, align 8
  %6 = getelementptr inbounds nuw %struct.VduseDev, ptr %5, i32 0, i32 10
  %7 = load i32, ptr %6, align 8
  %8 = call i32 (i32, i64, ...) @ioctl(i32 noundef %7, i64 noundef 1074037015, ptr noundef %4) #13
  ret i32 %8
}

; Function Attrs: nounwind uwtable
define internal zeroext i1 @vduse_queue_should_notify(ptr noundef %0) #0 {
  %2 = alloca i1, align 1
  %3 = alloca ptr, align 8
  %4 = alloca ptr, align 8
  %5 = alloca i16, align 2
  %6 = alloca i16, align 2
  %7 = alloca i8, align 1
  %8 = alloca i32, align 4
  store ptr %0, ptr %3, align 8
  call void @llvm.lifetime.start.p0(i64 8, ptr %4) #13
  %9 = load ptr, ptr %3, align 8
  %10 = getelementptr inbounds nuw %struct.VduseVirtq, ptr %9, i32 0, i32 10
  %11 = load ptr, ptr %10, align 8
  store ptr %11, ptr %4, align 8
  call void @llvm.lifetime.start.p0(i64 2, ptr %5) #13
  store i16 0, ptr %5, align 2, !annotation !4
  call void @llvm.lifetime.start.p0(i64 2, ptr %6) #13
  store i16 0, ptr %6, align 2, !annotation !4
  call void @llvm.lifetime.start.p0(i64 1, ptr %7) #13
  store i8 0, ptr %7, align 1, !annotation !4
  call void asm sideeffect "", "~{memory},~{dirflag},~{fpsr},~{flags}"() #13, !srcloc !5
  fence seq_cst
  %12 = load ptr, ptr %4, align 8
  %13 = call zeroext i1 @vduse_dev_has_feature(ptr noundef %12, i32 noundef 24)
  br i1 %13, label %14, label %23

14:                                               ; preds = %1
  %15 = load ptr, ptr %3, align 8
  %16 = getelementptr inbounds nuw %struct.VduseVirtq, ptr %15, i32 0, i32 7
  %17 = load i32, ptr %16, align 8
  %18 = icmp ne i32 %17, 0
  br i1 %18, label %23, label %19

19:                                               ; preds = %14
  %20 = load ptr, ptr %3, align 8
  %21 = call zeroext i1 @vduse_queue_empty(ptr noundef %20)
  br i1 %21, label %22, label %23

22:                                               ; preds = %19
  store i1 true, ptr %2, align 1
  store i32 1, ptr %8, align 4
  br label %60

23:                                               ; preds = %19, %14, %1
  %24 = load ptr, ptr %4, align 8
  %25 = call zeroext i1 @vduse_dev_has_feature(ptr noundef %24, i32 noundef 29)
  br i1 %25, label %33, label %26

26:                                               ; preds = %23
  %27 = load ptr, ptr %3, align 8
  %28 = call zeroext i16 @vring_avail_flags(ptr noundef %27)
  %29 = zext i16 %28 to i32
  %30 = and i32 %29, 1
  %31 = icmp ne i32 %30, 0
  %32 = xor i1 %31, true
  store i1 %32, ptr %2, align 1
  store i32 1, ptr %8, align 4
  br label %60

33:                                               ; preds = %23
  %34 = load ptr, ptr %3, align 8
  %35 = getelementptr inbounds nuw %struct.VduseVirtq, ptr %34, i32 0, i32 5
  %36 = load i8, ptr %35, align 8, !range !6, !noundef !7
  %37 = trunc i8 %36 to i1
  %38 = zext i1 %37 to i8
  store i8 %38, ptr %7, align 1
  %39 = load ptr, ptr %3, align 8
  %40 = getelementptr inbounds nuw %struct.VduseVirtq, ptr %39, i32 0, i32 5
  store i8 1, ptr %40, align 8
  %41 = load ptr, ptr %3, align 8
  %42 = getelementptr inbounds nuw %struct.VduseVirtq, ptr %41, i32 0, i32 4
  %43 = load i16, ptr %42, align 2
  store i16 %43, ptr %5, align 2
  %44 = load ptr, ptr %3, align 8
  %45 = getelementptr inbounds nuw %struct.VduseVirtq, ptr %44, i32 0, i32 3
  %46 = load i16, ptr %45, align 4
  %47 = load ptr, ptr %3, align 8
  %48 = getelementptr inbounds nuw %struct.VduseVirtq, ptr %47, i32 0, i32 4
  store i16 %46, ptr %48, align 2
  store i16 %46, ptr %6, align 2
  %49 = load i8, ptr %7, align 1, !range !6, !noundef !7
  %50 = trunc i8 %49 to i1
  br i1 %50, label %51, label %58

51:                                               ; preds = %33
  %52 = load ptr, ptr %3, align 8
  %53 = call zeroext i16 @vring_get_used_event(ptr noundef %52)
  %54 = load i16, ptr %6, align 2
  %55 = load i16, ptr %5, align 2
  %56 = call i32 @vring_need_event(i16 noundef zeroext %53, i16 noundef zeroext %54, i16 noundef zeroext %55)
  %57 = icmp ne i32 %56, 0
  br label %58

58:                                               ; preds = %51, %33
  %59 = phi i1 [ true, %33 ], [ %57, %51 ]
  store i1 %59, ptr %2, align 1
  store i32 1, ptr %8, align 4
  br label %60

60:                                               ; preds = %58, %26, %22
  call void @llvm.lifetime.end.p0(i64 1, ptr %7) #13
  call void @llvm.lifetime.end.p0(i64 2, ptr %6) #13
  call void @llvm.lifetime.end.p0(i64 2, ptr %5) #13
  call void @llvm.lifetime.end.p0(i64 8, ptr %4) #13
  %61 = load i1, ptr %2, align 1
  ret i1 %61
}

; Function Attrs: nounwind uwtable
define dso_local void @vduse_queue_notify(ptr noundef %0) #0 {
  %2 = alloca ptr, align 8
  %3 = alloca ptr, align 8
  %4 = alloca i32, align 4
  store ptr %0, ptr %2, align 8
  call void @llvm.lifetime.start.p0(i64 8, ptr %3) #13
  %5 = load ptr, ptr %2, align 8
  %6 = getelementptr inbounds nuw %struct.VduseVirtq, ptr %5, i32 0, i32 10
  %7 = load ptr, ptr %6, align 8
  store ptr %7, ptr %3, align 8
  %8 = load ptr, ptr %2, align 8
  %9 = getelementptr inbounds nuw %struct.VduseVirtq, ptr %8, i32 0, i32 0
  %10 = getelementptr inbounds nuw %struct.VduseRing, ptr %9, i32 0, i32 5
  %11 = load ptr, ptr %10, align 8
  %12 = icmp ne ptr %11, null
  %13 = xor i1 %12, true
  %14 = xor i1 %13, true
  %15 = xor i1 %14, true
  %16 = zext i1 %15 to i32
  %17 = sext i32 %16 to i64
  %18 = call i64 @llvm.expect.i64(i64 %17, i64 0)
  %19 = icmp ne i64 %18, 0
  br i1 %19, label %20, label %21

20:                                               ; preds = %1
  store i32 1, ptr %4, align 4
  br label %42

21:                                               ; preds = %1
  %22 = load ptr, ptr %2, align 8
  %23 = call zeroext i1 @vduse_queue_should_notify(ptr noundef %22)
  br i1 %23, label %25, label %24

24:                                               ; preds = %21
  store i32 1, ptr %4, align 4
  br label %42

25:                                               ; preds = %21
  %26 = load ptr, ptr %3, align 8
  %27 = load ptr, ptr %2, align 8
  %28 = getelementptr inbounds nuw %struct.VduseVirtq, ptr %27, i32 0, i32 6
  %29 = load i32, ptr %28, align 4
  %30 = call i32 @vduse_inject_irq(ptr noundef %26, i32 noundef %29)
  %31 = icmp slt i32 %30, 0
  br i1 %31, label %32, label %41

32:                                               ; preds = %25
  %33 = load ptr, ptr @stderr, align 8
  %34 = load ptr, ptr %2, align 8
  %35 = getelementptr inbounds nuw %struct.VduseVirtq, ptr %34, i32 0, i32 6
  %36 = load i32, ptr %35, align 4
  %37 = call ptr @__errno_location() #14
  %38 = load i32, ptr %37, align 4
  %39 = call ptr @strerror(i32 noundef %38) #13
  %40 = call i32 (ptr, ptr, ...) @fprintf(ptr noundef %33, ptr noundef @.str, i32 noundef %36, ptr noundef %39) #13
  br label %41

41:                                               ; preds = %32, %25
  store i32 0, ptr %4, align 4
  br label %42

42:                                               ; preds = %41, %24, %20
  call void @llvm.lifetime.end.p0(i64 8, ptr %3) #13
  %43 = load i32, ptr %4, align 4
  switch i32 %43, label %45 [
    i32 0, label %44
    i32 1, label %44
  ]

44:                                               ; preds = %42, %42
  ret void

45:                                               ; preds = %42
  unreachable
}