; Function Attrs: nounwind uwtable
define dso_local void @vduse_queue_notify(ptr noundef captures(none) %0) local_unnamed_addr #2 {
  %2 = alloca i32, align 4
  %3 = getelementptr inbounds nuw i8, ptr %0, i64 88
  %4 = load ptr, ptr %3, align 8
  %5 = getelementptr inbounds nuw i8, ptr %0, i64 40
  %6 = load ptr, ptr %5, align 8
  %.not = icmp eq ptr %6, null
  br i1 %.not, label %54, label %7, !prof !4

7:                                                ; preds = %1
  tail call void asm sideeffect "", "~{memory},~{dirflag},~{fpsr},~{flags}"() #20, !srcloc !5
  fence seq_cst
  %8 = getelementptr i8, ptr %4, i64 8232
  %.val.i = load i64, ptr %8, align 8
  %9 = and i64 %.val.i, 16777216
  %.not23.i = icmp eq i64 %9, 0
  br i1 %.not23.i, label %vduse_queue_empty.exit.thread21.i, label %10

10:                                               ; preds = %7
  %11 = getelementptr inbounds nuw i8, ptr %0, i64 72
  %12 = load i32, ptr %11, align 8
  %.not.i = icmp eq i32 %12, 0
  br i1 %.not.i, label %13, label %vduse_queue_empty.exit.thread21.i

13:                                               ; preds = %10
  %14 = load ptr, ptr %5, align 8
  %.not.i.i = icmp eq ptr %14, null
  br i1 %.not.i.i, label %vduse_queue_should_notify.exit.thread, label %15, !prof !4

15:                                               ; preds = %13
  %16 = getelementptr inbounds nuw i8, ptr %0, i64 58
  %17 = load i16, ptr %16, align 2
  %18 = getelementptr inbounds nuw i8, ptr %0, i64 56
  %19 = load i16, ptr %18, align 8
  %.not6.i.i = icmp eq i16 %17, %19
  br i1 %.not6.i.i, label %vduse_queue_empty.exit.i, label %vduse_queue_empty.exit.thread21.i

vduse_queue_empty.exit.i:                         ; preds = %15
  %20 = getelementptr inbounds nuw i8, ptr %14, i64 2
  %21 = load i16, ptr %20, align 2
  store i16 %21, ptr %16, align 2
  %22 = icmp eq i16 %21, %17
  br i1 %22, label %vduse_queue_should_notify.exit.thread, label %vduse_queue_empty.exit.vduse_queue_empty.exit.thread21_crit_edge.i

vduse_queue_empty.exit.vduse_queue_empty.exit.thread21_crit_edge.i: ; preds = %vduse_queue_empty.exit.i
  %.val16.pre.i = load i64, ptr %8, align 8
  br label %vduse_queue_empty.exit.thread21.i

vduse_queue_empty.exit.thread21.i:                ; preds = %vduse_queue_empty.exit.vduse_queue_empty.exit.thread21_crit_edge.i, %15, %10, %7
  %.val16.i = phi i64 [ %.val16.pre.i, %vduse_queue_empty.exit.vduse_queue_empty.exit.thread21_crit_edge.i ], [ %.val.i, %15 ], [ %.val.i, %10 ], [ %.val.i, %7 ]
  %23 = and i64 %.val16.i, 536870912
  %.not24.i = icmp eq i64 %23, 0
  br i1 %.not24.i, label %24, label %26

24:                                               ; preds = %vduse_queue_empty.exit.thread21.i
  %.val17.i = load ptr, ptr %5, align 8
  %.val17.val.i = load i16, ptr %.val17.i, align 2
  %25 = and i16 %.val17.val.i, 1
  %.not15.i = icmp eq i16 %25, 0
  br i1 %.not15.i, label %vduse_queue_should_notify.exit.thread, label %54

26:                                               ; preds = %vduse_queue_empty.exit.thread21.i
  %27 = getelementptr inbounds nuw i8, ptr %0, i64 64
  %28 = load i8, ptr %27, align 8, !range !6, !noundef !7
  %29 = trunc nuw i8 %28 to i1
  store i8 1, ptr %27, align 8
  %30 = getelementptr inbounds nuw i8, ptr %0, i64 62
  %31 = load i16, ptr %30, align 2
  %32 = getelementptr inbounds nuw i8, ptr %0, i64 60
  %33 = load i16, ptr %32, align 4
  store i16 %33, ptr %30, align 2
  br i1 %29, label %vduse_queue_should_notify.exit, label %vduse_queue_should_notify.exit.thread

vduse_queue_should_notify.exit:                   ; preds = %26
  %.val18.i = load i32, ptr %0, align 8
  %.val19.i = load ptr, ptr %5, align 8
  %34 = getelementptr inbounds nuw i8, ptr %.val19.i, i64 4
  %35 = sext i32 %.val18.i to i64
  %36 = getelementptr inbounds [0 x i16], ptr %34, i64 0, i64 %35
  %37 = load i16, ptr %36, align 2
  %38 = xor i16 %37, -1
  %39 = add i16 %33, %38
  %40 = sub i16 %33, %31
  %41 = icmp ult i16 %39, %40
  br i1 %41, label %vduse_queue_should_notify.exit.thread, label %54

vduse_queue_should_notify.exit.thread:            ; preds = %13, %26, %vduse_queue_empty.exit.i, %24, %vduse_queue_should_notify.exit
  %42 = getelementptr inbounds nuw i8, ptr %0, i64 68
  %43 = load i32, ptr %42, align 4
  %44 = getelementptr i8, ptr %4, i64 8248
  %.val = load i32, ptr %44, align 8
  call void @llvm.lifetime.start.p0(i64 4, ptr nonnull %2)
  store i32 %43, ptr %2, align 4
  %45 = call i32 (i32, i64, ...) @ioctl(i32 noundef %.val, i64 noundef 1074037015, ptr noundef nonnull %2) #20
  call void @llvm.lifetime.end.p0(i64 4, ptr nonnull %2)
  %46 = icmp slt i32 %45, 0
  br i1 %46, label %47, label %54

47:                                               ; preds = %vduse_queue_should_notify.exit.thread
  %48 = load ptr, ptr @stderr, align 8
  %49 = load i32, ptr %42, align 4
  %50 = tail call ptr @__errno_location() #21
  %51 = load i32, ptr %50, align 4
  %52 = call ptr @strerror(i32 noundef %51) #20
  %53 = call i32 (ptr, ptr, ...) @fprintf(ptr noundef %48, ptr noundef nonnull @.str, i32 noundef %49, ptr noundef %52) #22
  br label %54

54:                                               ; preds = %24, %vduse_queue_should_notify.exit.thread, %47, %vduse_queue_should_notify.exit, %1
  ret void
}